   1               		.file	"mc_o.c"
   2               	__SREG__ = 0x3f
   3               	__SP_H__ = 0x3e
   4               	__SP_L__ = 0x3d
   5               	__CCP__  = 0x34
   6               	__tmp_reg__ = 0
   7               	__zero_reg__ = 1
  15               	.Ltext0:
  16               	.global	__vector_18
  18               	__vector_18:
  19               	.LFB3:
  20               	.LM1:
  21 0000 1F92      		push __zero_reg__
  22 0002 0F92      		push r0
  23 0004 0FB6      		in r0,__SREG__
  24 0006 0F92      		push r0
  25 0008 1124      		clr __zero_reg__
  26 000a 8F93      		push r24
  27 000c 9F93      		push r25
  28 000e EF93      		push r30
  29 0010 FF93      		push r31
  30               	/* prologue: Signal */
  31               	/* frame size = 0 */
  32               	.LM2:
  33 0012 9091 C600 		lds r25,198
  34               	.LVL0:
  35               	.LM3:
  36 0016 8091 0000 		lds r24,sensors_flag
  37 001a 8823      		tst r24
  38 001c 01F0      		breq .L3
  39               	.LM4:
  40 001e 8091 0000 		lds r24,sensors_index
  41 0022 E82F      		mov r30,r24
  42 0024 F0E0      		ldi r31,lo8(0)
  43 0026 E050      		subi r30,lo8(-(sensors_in))
  44 0028 F040      		sbci r31,hi8(-(sensors_in))
  45 002a 9083      		st Z,r25
  46 002c 8F5F      		subi r24,lo8(-(1))
  47 002e 8093 0000 		sts sensors_index,r24
  48               	.LM5:
  49 0032 8091 0000 		lds r24,sensors_index
  50 0036 8A31      		cpi r24,lo8(26)
  51 0038 00F0      		brlo .L3
  52               	.LM6:
  53 003a 1092 0000 		sts sensors_flag,__zero_reg__
  54               	.L3:
  55               	/* epilogue start */
  56               	.LM7:
  57 003e FF91      		pop r31
  58 0040 EF91      		pop r30
  59 0042 9F91      		pop r25
  60               	.LVL1:
  61 0044 8F91      		pop r24
  62 0046 0F90      		pop r0
  63 0048 0FBE      		out __SREG__,r0
  64 004a 0F90      		pop r0
  65 004c 1F90      		pop __zero_reg__
  66 004e 1895      		reti
  67               	.LFE3:
  69               	.global	__vector_11
  71               	__vector_11:
  72               	.LFB4:
  73               	.LM8:
  74 0050 1F92      		push __zero_reg__
  75 0052 0F92      		push r0
  76 0054 0FB6      		in r0,__SREG__
  77 0056 0F92      		push r0
  78 0058 1124      		clr __zero_reg__
  79 005a 8F93      		push r24
  80 005c 9F93      		push r25
  81               	/* prologue: Signal */
  82               	/* frame size = 0 */
  83               	.LM9:
  84 005e 8091 0000 		lds r24,timer_cnt
  85 0062 9091 0000 		lds r25,(timer_cnt)+1
  86 0066 892B      		or r24,r25
  87 0068 01F0      		breq .L5
  88               	.LM10:
  89 006a 8091 0000 		lds r24,timer_cnt
  90 006e 9091 0000 		lds r25,(timer_cnt)+1
  91 0072 0197      		sbiw r24,1
  92 0074 9093 0000 		sts (timer_cnt)+1,r25
  93 0078 8093 0000 		sts timer_cnt,r24
  94 007c 00C0      		rjmp .L7
  95               	.L5:
  96               	.LM11:
  97 007e 1092 0000 		sts timer_on,__zero_reg__
  98               	.L7:
  99               	/* epilogue start */
 100               	.LM12:
 101 0082 9F91      		pop r25
 102 0084 8F91      		pop r24
 103 0086 0F90      		pop r0
 104 0088 0FBE      		out __SREG__,r0
 105 008a 0F90      		pop r0
 106 008c 1F90      		pop __zero_reg__
 107 008e 1895      		reti
 108               	.LFE4:
 110               	.global	byteTx
 112               	byteTx:
 113               	.LFB5:
 114               	.LM13:
 115               	.LVL2:
 116               	/* prologue: function */
 117               	/* frame size = 0 */
 118 0090 982F      		mov r25,r24
 119               	.LVL3:
 120               	.L9:
 121               	.LM14:
 122 0092 8091 C000 		lds r24,192
 123 0096 85FF      		sbrs r24,5
 124 0098 00C0      		rjmp .L9
 125               	.LM15:
 126 009a 9093 C600 		sts 198,r25
 127               	/* epilogue start */
 128               	.LM16:
 129 009e 0895      		ret
 130               	.LFE5:
 132               	.global	delay
 134               	delay:
 135               	.LFB6:
 136               	.LM17:
 137               	.LVL4:
 138               	/* prologue: function */
 139               	/* frame size = 0 */
 140               	.LM18:
 141 00a0 21E0      		ldi r18,lo8(1)
 142 00a2 2093 0000 		sts timer_on,r18
 143               	.LM19:
 144 00a6 9093 0000 		sts (timer_cnt)+1,r25
 145 00aa 8093 0000 		sts timer_cnt,r24
 146               	.L13:
 147               	.LM20:
 148 00ae 8091 0000 		lds r24,timer_on
 149               	.LVL5:
 150 00b2 8823      		tst r24
 151 00b4 01F4      		brne .L13
 152               	/* epilogue start */
 153               	.LM21:
 154 00b6 0895      		ret
 155               	.LFE6:
 157               	.global	delaySensors
 159               	delaySensors:
 160               	.LFB7:
 161               	.LM22:
 162               	.LVL6:
 163               	/* prologue: function */
 164               	/* frame size = 0 */
 165               	.LM23:
 166 00b8 21E0      		ldi r18,lo8(1)
 167 00ba 2093 0000 		sts timer_on,r18
 168               	.LM24:
 169 00be 9093 0000 		sts (timer_cnt)+1,r25
 170 00c2 8093 0000 		sts timer_cnt,r24
 171               	.LBB216:
 172               	.LBB217:
 173               	.LM25:
 174 00c6 BEE8      		ldi r27,lo8(-114)
 175               	.LBE217:
 176               	.LBE216:
 177               	.LM26:
 178 00c8 A1E0      		ldi r26,lo8(1)
 179 00ca 00C0      		rjmp .L28
 180               	.LVL7:
 181               	.L21:
 182               	.LM27:
 183 00cc 8091 0000 		lds r24,sensors_flag
 184 00d0 8823      		tst r24
 185 00d2 01F0      		breq .+2
 186 00d4 00C0      		rjmp .L28
 187 00d6 40E0      		ldi r20,lo8(0)
 188 00d8 50E0      		ldi r21,hi8(0)
 189               	.L18:
 190               	.LM28:
 191 00da FA01      		movw r30,r20
 192 00dc E050      		subi r30,lo8(-(sensors_in))
 193 00de F040      		sbci r31,hi8(-(sensors_in))
 194 00e0 8081      		ld r24,Z
 195 00e2 FA01      		movw r30,r20
 196 00e4 E050      		subi r30,lo8(-(sensors))
 197 00e6 F040      		sbci r31,hi8(-(sensors))
 198 00e8 8083      		st Z,r24
 199 00ea 4F5F      		subi r20,lo8(-(1))
 200 00ec 5F4F      		sbci r21,hi8(-(1))
 201               	.LM29:
 202 00ee 4A31      		cpi r20,26
 203 00f0 5105      		cpc r21,__zero_reg__
 204 00f2 01F4      		brne .L18
 205               	.LM30:
 206 00f4 4091 0000 		lds r20,distance
 207 00f8 5091 0000 		lds r21,(distance)+1
 208 00fc 2091 0000 		lds r18,sensors+12
 209 0100 8091 0000 		lds r24,sensors+13
 210 0104 722F      		mov r23,r18
 211 0106 60E0      		ldi r22,lo8(0)
 212 0108 90E0      		ldi r25,lo8(0)
 213 010a 862B      		or r24,r22
 214 010c 972B      		or r25,r23
 215 010e 840F      		add r24,r20
 216 0110 951F      		adc r25,r21
 217 0112 9093 0000 		sts (distance)+1,r25
 218 0116 8093 0000 		sts distance,r24
 219               	.LM31:
 220 011a 4091 0000 		lds r20,angle
 221 011e 5091 0000 		lds r21,(angle)+1
 222 0122 2091 0000 		lds r18,sensors+14
 223 0126 8091 0000 		lds r24,sensors+15
 224 012a 322F      		mov r19,r18
 225 012c 20E0      		ldi r18,lo8(0)
 226 012e 90E0      		ldi r25,lo8(0)
 227 0130 822B      		or r24,r18
 228 0132 932B      		or r25,r19
 229 0134 840F      		add r24,r20
 230 0136 951F      		adc r25,r21
 231 0138 9093 0000 		sts (angle)+1,r25
 232 013c 8093 0000 		sts angle,r24
 233               	.L19:
 234               	.LBB219:
 235               	.LBB218:
 236               	.LM32:
 237 0140 8091 C000 		lds r24,192
 238 0144 85FF      		sbrs r24,5
 239 0146 00C0      		rjmp .L19
 240               	.LM33:
 241 0148 B093 C600 		sts 198,r27
 242               	.L20:
 243               	.LBE218:
 244               	.LBE219:
 245               	.LBB220:
 246               	.LBB221:
 247               	.LM34:
 248 014c 8091 C000 		lds r24,192
 249 0150 85FF      		sbrs r24,5
 250 0152 00C0      		rjmp .L20
 251               	.LM35:
 252 0154 1092 C600 		sts 198,__zero_reg__
 253               	.LBE221:
 254               	.LBE220:
 255               	.LM36:
 256 0158 1092 0000 		sts sensors_index,__zero_reg__
 257               	.LM37:
 258 015c A093 0000 		sts sensors_flag,r26
 259               	.LVL8:
 260               	.L28:
 261               	.LM38:
 262 0160 8091 0000 		lds r24,timer_on
 263               	.LVL9:
 264 0164 8823      		tst r24
 265 0166 01F0      		breq .+2
 266 0168 00C0      		rjmp .L21
 267               	/* epilogue start */
 268               	.LM39:
 269 016a 0895      		ret
 270               	.LFE7:
 272               	.global	initialize
 274               	initialize:
 275               	.LFB8:
 276               	.LM40:
 277               	/* prologue: function */
 278               	/* frame size = 0 */
 279               	.LM41:
 280               	/* #APP */
 281               	 ;  236 "mc_o.c" 1
 282 016c F894      		cli
 283               	 ;  0 "" 2
 284               	.LM42:
 285               	/* #NOAPP */
 286 016e 14B8      		out 36-32,__zero_reg__
 287               	.LM43:
 288 0170 8FEF      		ldi r24,lo8(-1)
 289 0172 85B9      		out 37-32,r24
 290               	.LM44:
 291 0174 17B8      		out 39-32,__zero_reg__
 292               	.LM45:
 293 0176 88B9      		out 40-32,r24
 294               	.LM46:
 295 0178 26E0      		ldi r18,lo8(6)
 296 017a 2AB9      		out 42-32,r18
 297               	.LM47:
 298 017c 8DEF      		ldi r24,lo8(-3)
 299 017e 8BB9      		out 43-32,r24
 300               	.LM48:
 301 0180 1092 8000 		sts 128,__zero_reg__
 302               	.LM49:
 303 0184 8CE0      		ldi r24,lo8(12)
 304 0186 8093 8100 		sts 129,r24
 305               	.LM50:
 306 018a 88E4      		ldi r24,lo8(72)
 307 018c 90E0      		ldi r25,hi8(72)
 308 018e 9093 8900 		sts (136)+1,r25
 309 0192 8093 8800 		sts 136,r24
 310               	.LM51:
 311 0196 82E0      		ldi r24,lo8(2)
 312 0198 8093 6F00 		sts 111,r24
 313               	.LM52:
 314 019c 83E1      		ldi r24,lo8(19)
 315 019e 90E0      		ldi r25,hi8(19)
 316 01a0 9093 C500 		sts (196)+1,r25
 317 01a4 8093 C400 		sts 196,r24
 318               	.LM53:
 319 01a8 88E9      		ldi r24,lo8(-104)
 320 01aa 8093 C100 		sts 193,r24
 321               	.LM54:
 322 01ae 2093 C200 		sts 194,r18
 323               	.LM55:
 324               	/* #APP */
 325               	 ;  257 "mc_o.c" 1
 326 01b2 7894      		sei
 327               	 ;  0 "" 2
 328               	/* epilogue start */
 329               	.LM56:
 330               	/* #NOAPP */
 331 01b4 0895      		ret
 332               	.LFE8:
 334               	.global	wake
 336               	wake:
 337               	.LFB9:
 338               	.LM57:
 339               	/* prologue: function */
 340               	/* frame size = 0 */
 341               	.LBB222:
 342               	.LBB223:
 343               	.LM58:
 344 01b6 81E0      		ldi r24,lo8(1)
 345 01b8 8093 0000 		sts timer_on,r24
 346               	.LM59:
 347 01bc 88EC      		ldi r24,lo8(200)
 348 01be 90E0      		ldi r25,hi8(200)
 349 01c0 9093 0000 		sts (timer_cnt)+1,r25
 350 01c4 8093 0000 		sts timer_cnt,r24
 351               	.L32:
 352               	.LM60:
 353 01c8 8091 0000 		lds r24,timer_on
 354 01cc 8823      		tst r24
 355 01ce 01F4      		brne .L32
 356               	.LBE223:
 357               	.LBE222:
 358               	.LM61:
 359 01d0 5A98      		cbi 43-32,2
 360               	.LBB224:
 361               	.LBB225:
 362               	.LM62:
 363 01d2 81E0      		ldi r24,lo8(1)
 364 01d4 8093 0000 		sts timer_on,r24
 365               	.LM63:
 366 01d8 84E6      		ldi r24,lo8(100)
 367 01da 90E0      		ldi r25,hi8(100)
 368 01dc 9093 0000 		sts (timer_cnt)+1,r25
 369 01e0 8093 0000 		sts timer_cnt,r24
 370               	.L33:
 371               	.LM64:
 372 01e4 8091 0000 		lds r24,timer_on
 373 01e8 8823      		tst r24
 374 01ea 01F4      		brne .L33
 375               	.LBE225:
 376               	.LBE224:
 377               	.LM65:
 378 01ec 5A9A      		sbi 43-32,2
 379               	.LBB226:
 380               	.LBB227:
 381               	.LM66:
 382 01ee 81E0      		ldi r24,lo8(1)
 383 01f0 8093 0000 		sts timer_on,r24
 384               	.LM67:
 385 01f4 8AE0      		ldi r24,lo8(10)
 386 01f6 90E0      		ldi r25,hi8(10)
 387 01f8 9093 0000 		sts (timer_cnt)+1,r25
 388 01fc 8093 0000 		sts timer_cnt,r24
 389               	.L34:
 390               	.LM68:
 391 0200 8091 0000 		lds r24,timer_on
 392 0204 8823      		tst r24
 393 0206 01F4      		brne .L34
 394               	/* epilogue start */
 395               	.LBE227:
 396               	.LBE226:
 397               	.LM69:
 398 0208 0895      		ret
 399               	.LFE9:
 401               	.global	baud
 403               	baud:
 404               	.LFB10:
 405               	.LM70:
 406               	.LVL10:
 407               	/* prologue: function */
 408               	/* frame size = 0 */
 409 020a 982F      		mov r25,r24
 410               	.LM71:
 411 020c 8C30      		cpi r24,lo8(12)
 412 020e 00F0      		brlo .+2
 413 0210 00C0      		rjmp .L57
 414               	.L58:
 415               	.LBB228:
 416               	.LBB229:
 417               	.LM72:
 418 0212 8091 C000 		lds r24,192
 419               	.LVL11:
 420 0216 85FF      		sbrs r24,5
 421 0218 00C0      		rjmp .L58
 422               	.LM73:
 423 021a 81E8      		ldi r24,lo8(-127)
 424 021c 8093 C600 		sts 198,r24
 425               	.LBE229:
 426               	.LBE228:
 427               	.LM74:
 428 0220 8091 C000 		lds r24,192
 429 0224 8064      		ori r24,lo8(64)
 430 0226 8093 C000 		sts 192,r24
 431               	.L42:
 432               	.LBB230:
 433               	.LBB231:
 434               	.LM75:
 435 022a 8091 C000 		lds r24,192
 436 022e 85FF      		sbrs r24,5
 437 0230 00C0      		rjmp .L42
 438               	.LM76:
 439 0232 9093 C600 		sts 198,r25
 440               	.L43:
 441               	.LBE231:
 442               	.LBE230:
 443               	.LM77:
 444 0236 8091 C000 		lds r24,192
 445 023a 86FF      		sbrs r24,6
 446 023c 00C0      		rjmp .L43
 447               	.LM78:
 448               	/* #APP */
 449               	 ;  287 "mc_o.c" 1
 450 023e F894      		cli
 451               	 ;  0 "" 2
 452               	.LM79:
 453               	/* #NOAPP */
 454 0240 9B30      		cpi r25,lo8(11)
 455 0242 01F4      		brne .L44
 456               	.LM80:
 457 0244 89E0      		ldi r24,lo8(9)
 458 0246 90E0      		ldi r25,hi8(9)
 459 0248 00C0      		rjmp .L63
 460               	.L44:
 461               	.LM81:
 462 024a 9A30      		cpi r25,lo8(10)
 463 024c 01F4      		brne .L46
 464               	.LM82:
 465 024e 83E1      		ldi r24,lo8(19)
 466 0250 90E0      		ldi r25,hi8(19)
 467 0252 00C0      		rjmp .L63
 468               	.L46:
 469               	.LM83:
 470 0254 9930      		cpi r25,lo8(9)
 471 0256 01F4      		brne .L47
 472               	.LM84:
 473 0258 8DE1      		ldi r24,lo8(29)
 474 025a 90E0      		ldi r25,hi8(29)
 475 025c 00C0      		rjmp .L63
 476               	.L47:
 477               	.LM85:
 478 025e 9830      		cpi r25,lo8(8)
 479 0260 01F4      		brne .L48
 480               	.LM86:
 481 0262 87E2      		ldi r24,lo8(39)
 482 0264 90E0      		ldi r25,hi8(39)
 483 0266 00C0      		rjmp .L63
 484               	.L48:
 485               	.LM87:
 486 0268 9730      		cpi r25,lo8(7)
 487 026a 01F4      		brne .L49
 488               	.LM88:
 489 026c 8BE3      		ldi r24,lo8(59)
 490 026e 90E0      		ldi r25,hi8(59)
 491 0270 00C0      		rjmp .L63
 492               	.L49:
 493               	.LM89:
 494 0272 9630      		cpi r25,lo8(6)
 495 0274 01F4      		brne .L50
 496               	.LM90:
 497 0276 8FE4      		ldi r24,lo8(79)
 498 0278 90E0      		ldi r25,hi8(79)
 499 027a 00C0      		rjmp .L63
 500               	.L50:
 501               	.LM91:
 502 027c 9530      		cpi r25,lo8(5)
 503 027e 01F4      		brne .L51
 504               	.LM92:
 505 0280 87E7      		ldi r24,lo8(119)
 506 0282 90E0      		ldi r25,hi8(119)
 507 0284 00C0      		rjmp .L63
 508               	.L51:
 509               	.LM93:
 510 0286 9430      		cpi r25,lo8(4)
 511 0288 01F4      		brne .L52
 512               	.LM94:
 513 028a 8FEE      		ldi r24,lo8(239)
 514 028c 90E0      		ldi r25,hi8(239)
 515 028e 00C0      		rjmp .L63
 516               	.L52:
 517               	.LM95:
 518 0290 9330      		cpi r25,lo8(3)
 519 0292 01F4      		brne .L53
 520               	.LM96:
 521 0294 8FED      		ldi r24,lo8(479)
 522 0296 91E0      		ldi r25,hi8(479)
 523 0298 00C0      		rjmp .L63
 524               	.L53:
 525               	.LM97:
 526 029a 9230      		cpi r25,lo8(2)
 527 029c 01F4      		brne .L54
 528               	.LM98:
 529 029e 8FEB      		ldi r24,lo8(959)
 530 02a0 93E0      		ldi r25,hi8(959)
 531 02a2 00C0      		rjmp .L63
 532               	.L54:
 533               	.LM99:
 534 02a4 9130      		cpi r25,lo8(1)
 535 02a6 01F4      		brne .L55
 536               	.LM100:
 537 02a8 8FE7      		ldi r24,lo8(1919)
 538 02aa 97E0      		ldi r25,hi8(1919)
 539 02ac 00C0      		rjmp .L63
 540               	.L55:
 541               	.LM101:
 542 02ae 8FEF      		ldi r24,lo8(3839)
 543 02b0 9EE0      		ldi r25,hi8(3839)
 544               	.L63:
 545 02b2 9093 C500 		sts (196)+1,r25
 546 02b6 8093 C400 		sts 196,r24
 547               	.LM102:
 548               	/* #APP */
 549               	 ;  315 "mc_o.c" 1
 550 02ba 7894      		sei
 551               	 ;  0 "" 2
 552               	/* #NOAPP */
 553               	.LBB232:
 554               	.LBB233:
 555               	.LM103:
 556 02bc 81E0      		ldi r24,lo8(1)
 557 02be 8093 0000 		sts timer_on,r24
 558               	.LM104:
 559 02c2 84E6      		ldi r24,lo8(100)
 560 02c4 90E0      		ldi r25,hi8(100)
 561 02c6 9093 0000 		sts (timer_cnt)+1,r25
 562 02ca 8093 0000 		sts timer_cnt,r24
 563               	.L56:
 564               	.LM105:
 565 02ce 8091 0000 		lds r24,timer_on
 566 02d2 8823      		tst r24
 567 02d4 01F4      		brne .L56
 568               	.LVL12:
 569               	.L57:
 570 02d6 0895      		ret
 571               	.LBE233:
 572               	.LBE232:
 573               	.LFE10:
 575               	.global	drive
 577               	drive:
 578               	.LFB11:
 579               	.LM106:
 580               	.LVL13:
 581               	/* prologue: function */
 582               	/* frame size = 0 */
 583 02d8 282F      		mov r18,r24
 584               	.LVL14:
 585               	.L65:
 586               	.LBB234:
 587               	.LBB235:
 588               	.LM107:
 589 02da 8091 C000 		lds r24,192
 590 02de 85FF      		sbrs r24,5
 591 02e0 00C0      		rjmp .L65
 592               	.LM108:
 593 02e2 89E8      		ldi r24,lo8(-119)
 594 02e4 8093 C600 		sts 198,r24
 595               	.L66:
 596               	.LBE235:
 597               	.LBE234:
 598               	.LBB236:
 599               	.LBB237:
 600               	.LM109:
 601 02e8 8091 C000 		lds r24,192
 602 02ec 85FF      		sbrs r24,5
 603 02ee 00C0      		rjmp .L66
 604               	.LM110:
 605 02f0 9093 C600 		sts 198,r25
 606               	.LVL15:
 607               	.L67:
 608               	.LBE237:
 609               	.LBE236:
 610               	.LBB238:
 611               	.LBB239:
 612               	.LM111:
 613 02f4 8091 C000 		lds r24,192
 614 02f8 85FF      		sbrs r24,5
 615 02fa 00C0      		rjmp .L67
 616               	.LM112:
 617 02fc 2093 C600 		sts 198,r18
 618               	.L68:
 619               	.LBE239:
 620               	.LBE238:
 621               	.LBB240:
 622               	.LBB241:
 623               	.LM113:
 624 0300 8091 C000 		lds r24,192
 625 0304 85FF      		sbrs r24,5
 626 0306 00C0      		rjmp .L68
 627               	.LM114:
 628 0308 7093 C600 		sts 198,r23
 629               	.LVL16:
 630               	.L69:
 631               	.LBE241:
 632               	.LBE240:
 633               	.LBB242:
 634               	.LBB243:
 635               	.LM115:
 636 030c 8091 C000 		lds r24,192
 637 0310 85FF      		sbrs r24,5
 638 0312 00C0      		rjmp .L69
 639               	.LM116:
 640 0314 6093 C600 		sts 198,r22
 641               	/* epilogue start */
 642               	.LBE243:
 643               	.LBE242:
 644               	.LM117:
 645 0318 0895      		ret
 646               	.LFE11:
 648               	.global	defineSongs
 650               	defineSongs:
 651               	.LFB13:
 652               	.LM118:
 653               	/* prologue: function */
 654               	/* frame size = 0 */
 655               	.L77:
 656               	.LBB244:
 657               	.LBB245:
 658               	.LM119:
 659 031a 8091 C000 		lds r24,192
 660 031e 85FF      		sbrs r24,5
 661 0320 00C0      		rjmp .L77
 662               	.LM120:
 663 0322 8CE8      		ldi r24,lo8(-116)
 664 0324 8093 C600 		sts 198,r24
 665               	.L78:
 666               	.LBE245:
 667               	.LBE244:
 668               	.LBB246:
 669               	.LBB247:
 670               	.LM121:
 671 0328 8091 C000 		lds r24,192
 672 032c 85FF      		sbrs r24,5
 673 032e 00C0      		rjmp .L78
 674               	.LM122:
 675 0330 1092 C600 		sts 198,__zero_reg__
 676               	.L79:
 677               	.LBE247:
 678               	.LBE246:
 679               	.LBB248:
 680               	.LBB249:
 681               	.LM123:
 682 0334 8091 C000 		lds r24,192
 683 0338 85FF      		sbrs r24,5
 684 033a 00C0      		rjmp .L79
 685               	.LM124:
 686 033c 89E0      		ldi r24,lo8(9)
 687 033e 8093 C600 		sts 198,r24
 688               	.L80:
 689               	.LBE249:
 690               	.LBE248:
 691               	.LBB250:
 692               	.LBB251:
 693               	.LM125:
 694 0342 8091 C000 		lds r24,192
 695 0346 85FF      		sbrs r24,5
 696 0348 00C0      		rjmp .L80
 697               	.LM126:
 698 034a 8CE4      		ldi r24,lo8(76)
 699 034c 8093 C600 		sts 198,r24
 700               	.L81:
 701               	.LBE251:
 702               	.LBE250:
 703               	.LBB252:
 704               	.LBB253:
 705               	.LM127:
 706 0350 8091 C000 		lds r24,192
 707 0354 85FF      		sbrs r24,5
 708 0356 00C0      		rjmp .L81
 709               	.LM128:
 710 0358 88E0      		ldi r24,lo8(8)
 711 035a 8093 C600 		sts 198,r24
 712               	.L82:
 713               	.LBE253:
 714               	.LBE252:
 715               	.LBB254:
 716               	.LBB255:
 717               	.LM129:
 718 035e 8091 C000 		lds r24,192
 719 0362 85FF      		sbrs r24,5
 720 0364 00C0      		rjmp .L82
 721               	.LM130:
 722 0366 85E4      		ldi r24,lo8(69)
 723 0368 8093 C600 		sts 198,r24
 724               	.L83:
 725               	.LBE255:
 726               	.LBE254:
 727               	.LBB256:
 728               	.LBB257:
 729               	.LM131:
 730 036c 8091 C000 		lds r24,192
 731 0370 85FF      		sbrs r24,5
 732 0372 00C0      		rjmp .L83
 733               	.LM132:
 734 0374 88E0      		ldi r24,lo8(8)
 735 0376 8093 C600 		sts 198,r24
 736               	.L84:
 737               	.LBE257:
 738               	.LBE256:
 739               	.LBB258:
 740               	.LBB259:
 741               	.LM133:
 742 037a 8091 C000 		lds r24,192
 743 037e 85FF      		sbrs r24,5
 744 0380 00C0      		rjmp .L84
 745               	.LM134:
 746 0382 87E4      		ldi r24,lo8(71)
 747 0384 8093 C600 		sts 198,r24
 748               	.L85:
 749               	.LBE259:
 750               	.LBE258:
 751               	.LBB260:
 752               	.LBB261:
 753               	.LM135:
 754 0388 8091 C000 		lds r24,192
 755 038c 85FF      		sbrs r24,5
 756 038e 00C0      		rjmp .L85
 757               	.LM136:
 758 0390 88E0      		ldi r24,lo8(8)
 759 0392 8093 C600 		sts 198,r24
 760               	.L86:
 761               	.LBE261:
 762               	.LBE260:
 763               	.LBB262:
 764               	.LBB263:
 765               	.LM137:
 766 0396 8091 C000 		lds r24,192
 767 039a 85FF      		sbrs r24,5
 768 039c 00C0      		rjmp .L86
 769               	.LM138:
 770 039e 85E4      		ldi r24,lo8(69)
 771 03a0 8093 C600 		sts 198,r24
 772               	.L87:
 773               	.LBE263:
 774               	.LBE262:
 775               	.LBB264:
 776               	.LBB265:
 777               	.LM139:
 778 03a4 8091 C000 		lds r24,192
 779 03a8 85FF      		sbrs r24,5
 780 03aa 00C0      		rjmp .L87
 781               	.LM140:
 782 03ac 88E0      		ldi r24,lo8(8)
 783 03ae 8093 C600 		sts 198,r24
 784               	.L88:
 785               	.LBE265:
 786               	.LBE264:
 787               	.LBB266:
 788               	.LBB267:
 789               	.LM141:
 790 03b2 8091 C000 		lds r24,192
 791 03b6 85FF      		sbrs r24,5
 792 03b8 00C0      		rjmp .L88
 793               	.LM142:
 794 03ba 82E4      		ldi r24,lo8(66)
 795 03bc 8093 C600 		sts 198,r24
 796               	.L89:
 797               	.LBE267:
 798               	.LBE266:
 799               	.LBB268:
 800               	.LBB269:
 801               	.LM143:
 802 03c0 8091 C000 		lds r24,192
 803 03c4 85FF      		sbrs r24,5
 804 03c6 00C0      		rjmp .L89
 805               	.LM144:
 806 03c8 88E0      		ldi r24,lo8(8)
 807 03ca 8093 C600 		sts 198,r24
 808               	.L90:
 809               	.LBE269:
 810               	.LBE268:
 811               	.LBB270:
 812               	.LBB271:
 813               	.LM145:
 814 03ce 8091 C000 		lds r24,192
 815 03d2 85FF      		sbrs r24,5
 816 03d4 00C0      		rjmp .L90
 817               	.LM146:
 818 03d6 85E4      		ldi r24,lo8(69)
 819 03d8 8093 C600 		sts 198,r24
 820               	.L91:
 821               	.LBE271:
 822               	.LBE270:
 823               	.LBB272:
 824               	.LBB273:
 825               	.LM147:
 826 03dc 8091 C000 		lds r24,192
 827 03e0 85FF      		sbrs r24,5
 828 03e2 00C0      		rjmp .L91
 829               	.LM148:
 830 03e4 88E0      		ldi r24,lo8(8)
 831 03e6 8093 C600 		sts 198,r24
 832               	.L92:
 833               	.LBE273:
 834               	.LBE272:
 835               	.LBB274:
 836               	.LBB275:
 837               	.LM149:
 838 03ea 8091 C000 		lds r24,192
 839 03ee 85FF      		sbrs r24,5
 840 03f0 00C0      		rjmp .L92
 841               	.LM150:
 842 03f2 8EE4      		ldi r24,lo8(78)
 843 03f4 8093 C600 		sts 198,r24
 844               	.L93:
 845               	.LBE275:
 846               	.LBE274:
 847               	.LBB276:
 848               	.LBB277:
 849               	.LM151:
 850 03f8 8091 C000 		lds r24,192
 851 03fc 85FF      		sbrs r24,5
 852 03fe 00C0      		rjmp .L93
 853               	.LM152:
 854 0400 88E0      		ldi r24,lo8(8)
 855 0402 8093 C600 		sts 198,r24
 856               	.L94:
 857               	.LBE277:
 858               	.LBE276:
 859               	.LBB278:
 860               	.LBB279:
 861               	.LM153:
 862 0406 8091 C000 		lds r24,192
 863 040a 85FF      		sbrs r24,5
 864 040c 00C0      		rjmp .L94
 865               	.LM154:
 866 040e 8CE4      		ldi r24,lo8(76)
 867 0410 8093 C600 		sts 198,r24
 868               	.L95:
 869               	.LBE279:
 870               	.LBE278:
 871               	.LBB280:
 872               	.LBB281:
 873               	.LM155:
 874 0414 8091 C000 		lds r24,192
 875 0418 85FF      		sbrs r24,5
 876 041a 00C0      		rjmp .L95
 877               	.LM156:
 878 041c 88E0      		ldi r24,lo8(8)
 879 041e 8093 C600 		sts 198,r24
 880               	.L96:
 881               	.LBE281:
 882               	.LBE280:
 883               	.LBB282:
 884               	.LBB283:
 885               	.LM157:
 886 0422 8091 C000 		lds r24,192
 887 0426 85FF      		sbrs r24,5
 888 0428 00C0      		rjmp .L96
 889               	.LM158:
 890 042a 81E5      		ldi r24,lo8(81)
 891 042c 8093 C600 		sts 198,r24
 892               	.L97:
 893               	.LBE283:
 894               	.LBE282:
 895               	.LBB284:
 896               	.LBB285:
 897               	.LM159:
 898 0430 8091 C000 		lds r24,192
 899 0434 85FF      		sbrs r24,5
 900 0436 00C0      		rjmp .L97
 901               	.LM160:
 902 0438 80E1      		ldi r24,lo8(16)
 903 043a 8093 C600 		sts 198,r24
 904               	.L98:
 905               	.LBE285:
 906               	.LBE284:
 907               	.LBB286:
 908               	.LBB287:
 909               	.LM161:
 910 043e 8091 C000 		lds r24,192
 911 0442 85FF      		sbrs r24,5
 912 0444 00C0      		rjmp .L98
 913               	.LM162:
 914 0446 8CE8      		ldi r24,lo8(-116)
 915 0448 8093 C600 		sts 198,r24
 916               	.L99:
 917               	.LBE287:
 918               	.LBE286:
 919               	.LBB288:
 920               	.LBB289:
 921               	.LM163:
 922 044c 8091 C000 		lds r24,192
 923 0450 85FF      		sbrs r24,5
 924 0452 00C0      		rjmp .L99
 925               	.LM164:
 926 0454 81E0      		ldi r24,lo8(1)
 927 0456 8093 C600 		sts 198,r24
 928               	.L100:
 929               	.LBE289:
 930               	.LBE288:
 931               	.LBB290:
 932               	.LBB291:
 933               	.LM165:
 934 045a 8091 C000 		lds r24,192
 935 045e 85FF      		sbrs r24,5
 936 0460 00C0      		rjmp .L100
 937               	.LM166:
 938 0462 82E0      		ldi r24,lo8(2)
 939 0464 8093 C600 		sts 198,r24
 940               	.L101:
 941               	.LBE291:
 942               	.LBE290:
 943               	.LBB292:
 944               	.LBB293:
 945               	.LM167:
 946 0468 8091 C000 		lds r24,192
 947 046c 85FF      		sbrs r24,5
 948 046e 00C0      		rjmp .L101
 949               	.LM168:
 950 0470 85E4      		ldi r24,lo8(69)
 951 0472 8093 C600 		sts 198,r24
 952               	.L102:
 953               	.LBE293:
 954               	.LBE292:
 955               	.LBB294:
 956               	.LBB295:
 957               	.LM169:
 958 0476 8091 C000 		lds r24,192
 959 047a 85FF      		sbrs r24,5
 960 047c 00C0      		rjmp .L102
 961               	.LM170:
 962 047e 88E0      		ldi r24,lo8(8)
 963 0480 8093 C600 		sts 198,r24
 964               	.L103:
 965               	.LBE295:
 966               	.LBE294:
 967               	.LBB296:
 968               	.LBB297:
 969               	.LM171:
 970 0484 8091 C000 		lds r24,192
 971 0488 85FF      		sbrs r24,5
 972 048a 00C0      		rjmp .L103
 973               	.LM172:
 974 048c 1092 C600 		sts 198,__zero_reg__
 975               	.L104:
 976               	.LBE297:
 977               	.LBE296:
 978               	.LBB298:
 979               	.LBB299:
 980               	.LM173:
 981 0490 8091 C000 		lds r24,192
 982 0494 85FF      		sbrs r24,5
 983 0496 00C0      		rjmp .L104
 984               	.LM174:
 985 0498 88E0      		ldi r24,lo8(8)
 986 049a 8093 C600 		sts 198,r24
 987               	.L105:
 988               	.LBE299:
 989               	.LBE298:
 990               	.LBB300:
 991               	.LBB301:
 992               	.LM175:
 993 049e 8091 C000 		lds r24,192
 994 04a2 85FF      		sbrs r24,5
 995 04a4 00C0      		rjmp .L105
 996               	.LM176:
 997 04a6 8CE8      		ldi r24,lo8(-116)
 998 04a8 8093 C600 		sts 198,r24
 999               	.L106:
 1000               	.LBE301:
 1001               	.LBE300:
 1002               	.LBB302:
 1003               	.LBB303:
 1004               	.LM177:
 1005 04ac 8091 C000 		lds r24,192
 1006 04b0 85FF      		sbrs r24,5
 1007 04b2 00C0      		rjmp .L106
 1008               	.LM178:
 1009 04b4 82E0      		ldi r24,lo8(2)
 1010 04b6 8093 C600 		sts 198,r24
 1011               	.L107:
 1012               	.LBE303:
 1013               	.LBE302:
 1014               	.LBB304:
 1015               	.LBB305:
 1016               	.LM179:
 1017 04ba 8091 C000 		lds r24,192
 1018 04be 85FF      		sbrs r24,5
 1019 04c0 00C0      		rjmp .L107
 1020               	.LM180:
 1021 04c2 8EE0      		ldi r24,lo8(14)
 1022 04c4 8093 C600 		sts 198,r24
 1023               	.L108:
 1024               	.LBE305:
 1025               	.LBE304:
 1026               	.LBB306:
 1027               	.LBB307:
 1028               	.LM181:
 1029 04c8 8091 C000 		lds r24,192
 1030 04cc 85FF      		sbrs r24,5
 1031 04ce 00C0      		rjmp .L108
 1032               	.LM182:
 1033 04d0 83E4      		ldi r24,lo8(67)
 1034 04d2 8093 C600 		sts 198,r24
 1035               	.L109:
 1036               	.LBE307:
 1037               	.LBE306:
 1038               	.LBB308:
 1039               	.LBB309:
 1040               	.LM183:
 1041 04d6 8091 C000 		lds r24,192
 1042 04da 85FF      		sbrs r24,5
 1043 04dc 00C0      		rjmp .L109
 1044               	.LM184:
 1045 04de 88E1      		ldi r24,lo8(24)
 1046 04e0 8093 C600 		sts 198,r24
 1047               	.L110:
 1048               	.LBE309:
 1049               	.LBE308:
 1050               	.LBB310:
 1051               	.LBB311:
 1052               	.LM185:
 1053 04e4 8091 C000 		lds r24,192
 1054 04e8 85FF      		sbrs r24,5
 1055 04ea 00C0      		rjmp .L110
 1056               	.LM186:
 1057 04ec 87E4      		ldi r24,lo8(71)
 1058 04ee 8093 C600 		sts 198,r24
 1059               	.L111:
 1060               	.LBE311:
 1061               	.LBE310:
 1062               	.LBB312:
 1063               	.LBB313:
 1064               	.LM187:
 1065 04f2 8091 C000 		lds r24,192
 1066 04f6 85FF      		sbrs r24,5
 1067 04f8 00C0      		rjmp .L111
 1068               	.LM188:
 1069 04fa 80E1      		ldi r24,lo8(16)
 1070 04fc 8093 C600 		sts 198,r24
 1071               	.L112:
 1072               	.LBE313:
 1073               	.LBE312:
 1074               	.LBB314:
 1075               	.LBB315:
 1076               	.LM189:
 1077 0500 8091 C000 		lds r24,192
 1078 0504 85FF      		sbrs r24,5
 1079 0506 00C0      		rjmp .L112
 1080               	.LM190:
 1081 0508 83E4      		ldi r24,lo8(67)
 1082 050a 8093 C600 		sts 198,r24
 1083               	.L113:
 1084               	.LBE315:
 1085               	.LBE314:
 1086               	.LBB316:
 1087               	.LBB317:
 1088               	.LM191:
 1089 050e 8091 C000 		lds r24,192
 1090 0512 85FF      		sbrs r24,5
 1091 0514 00C0      		rjmp .L113
 1092               	.LM192:
 1093 0516 88E1      		ldi r24,lo8(24)
 1094 0518 8093 C600 		sts 198,r24
 1095               	.L114:
 1096               	.LBE317:
 1097               	.LBE316:
 1098               	.LBB318:
 1099               	.LBB319:
 1100               	.LM193:
 1101 051c 8091 C000 		lds r24,192
 1102 0520 85FF      		sbrs r24,5
 1103 0522 00C0      		rjmp .L114
 1104               	.LM194:
 1105 0524 87E4      		ldi r24,lo8(71)
 1106 0526 8093 C600 		sts 198,r24
 1107               	.L115:
 1108               	.LBE319:
 1109               	.LBE318:
 1110               	.LBB320:
 1111               	.LBB321:
 1112               	.LM195:
 1113 052a 8091 C000 		lds r24,192
 1114 052e 85FF      		sbrs r24,5
 1115 0530 00C0      		rjmp .L115
 1116               	.LM196:
 1117 0532 80E1      		ldi r24,lo8(16)
 1118 0534 8093 C600 		sts 198,r24
 1119               	.L116:
 1120               	.LBE321:
 1121               	.LBE320:
 1122               	.LBB322:
 1123               	.LBB323:
 1124               	.LM197:
 1125 0538 8091 C000 		lds r24,192
 1126 053c 85FF      		sbrs r24,5
 1127 053e 00C0      		rjmp .L116
 1128               	.LM198:
 1129 0540 83E4      		ldi r24,lo8(67)
 1130 0542 8093 C600 		sts 198,r24
 1131               	.L117:
 1132               	.LBE323:
 1133               	.LBE322:
 1134               	.LBB324:
 1135               	.LBB325:
 1136               	.LM199:
 1137 0546 8091 C000 		lds r24,192
 1138 054a 85FF      		sbrs r24,5
 1139 054c 00C0      		rjmp .L117
 1140               	.LM200:
 1141 054e 88E1      		ldi r24,lo8(24)
 1142 0550 8093 C600 		sts 198,r24
 1143               	.L118:
 1144               	.LBE325:
 1145               	.LBE324:
 1146               	.LBB326:
 1147               	.LBB327:
 1148               	.LM201:
 1149 0554 8091 C000 		lds r24,192
 1150 0558 85FF      		sbrs r24,5
 1151 055a 00C0      		rjmp .L118
 1152               	.LM202:
 1153 055c 87E4      		ldi r24,lo8(71)
 1154 055e 8093 C600 		sts 198,r24
 1155               	.L119:
 1156               	.LBE327:
 1157               	.LBE326:
 1158               	.LBB328:
 1159               	.LBB329:
 1160               	.LM203:
 1161 0562 8091 C000 		lds r24,192
 1162 0566 85FF      		sbrs r24,5
 1163 0568 00C0      		rjmp .L119
 1164               	.LM204:
 1165 056a 80E1      		ldi r24,lo8(16)
 1166 056c 8093 C600 		sts 198,r24
 1167               	.L120:
 1168               	.LBE329:
 1169               	.LBE328:
 1170               	.LBB330:
 1171               	.LBB331:
 1172               	.LM205:
 1173 0570 8091 C000 		lds r24,192
 1174 0574 85FF      		sbrs r24,5
 1175 0576 00C0      		rjmp .L120
 1176               	.LM206:
 1177 0578 83E4      		ldi r24,lo8(67)
 1178 057a 8093 C600 		sts 198,r24
 1179               	.L121:
 1180               	.LBE331:
 1181               	.LBE330:
 1182               	.LBB332:
 1183               	.LBB333:
 1184               	.LM207:
 1185 057e 8091 C000 		lds r24,192
 1186 0582 85FF      		sbrs r24,5
 1187 0584 00C0      		rjmp .L121
 1188               	.LM208:
 1189 0586 88E1      		ldi r24,lo8(24)
 1190 0588 8093 C600 		sts 198,r24
 1191               	.L122:
 1192               	.LBE333:
 1193               	.LBE332:
 1194               	.LBB334:
 1195               	.LBB335:
 1196               	.LM209:
 1197 058c 8091 C000 		lds r24,192
 1198 0590 85FF      		sbrs r24,5
 1199 0592 00C0      		rjmp .L122
 1200               	.LM210:
 1201 0594 87E4      		ldi r24,lo8(71)
 1202 0596 8093 C600 		sts 198,r24
 1203               	.L123:
 1204               	.LBE335:
 1205               	.LBE334:
 1206               	.LBB336:
 1207               	.LBB337:
 1208               	.LM211:
 1209 059a 8091 C000 		lds r24,192
 1210 059e 85FF      		sbrs r24,5
 1211 05a0 00C0      		rjmp .L123
 1212               	.LM212:
 1213 05a2 80E1      		ldi r24,lo8(16)
 1214 05a4 8093 C600 		sts 198,r24
 1215               	.L124:
 1216               	.LBE337:
 1217               	.LBE336:
 1218               	.LBB338:
 1219               	.LBB339:
 1220               	.LM213:
 1221 05a8 8091 C000 		lds r24,192
 1222 05ac 85FF      		sbrs r24,5
 1223 05ae 00C0      		rjmp .L124
 1224               	.LM214:
 1225 05b0 83E4      		ldi r24,lo8(67)
 1226 05b2 8093 C600 		sts 198,r24
 1227               	.L125:
 1228               	.LBE339:
 1229               	.LBE338:
 1230               	.LBB340:
 1231               	.LBB341:
 1232               	.LM215:
 1233 05b6 8091 C000 		lds r24,192
 1234 05ba 85FF      		sbrs r24,5
 1235 05bc 00C0      		rjmp .L125
 1236               	.LM216:
 1237 05be 88E1      		ldi r24,lo8(24)
 1238 05c0 8093 C600 		sts 198,r24
 1239               	.L126:
 1240               	.LBE341:
 1241               	.LBE340:
 1242               	.LBB342:
 1243               	.LBB343:
 1244               	.LM217:
 1245 05c4 8091 C000 		lds r24,192
 1246 05c8 85FF      		sbrs r24,5
 1247 05ca 00C0      		rjmp .L126
 1248               	.LM218:
 1249 05cc 87E4      		ldi r24,lo8(71)
 1250 05ce 8093 C600 		sts 198,r24
 1251               	.L127:
 1252               	.LBE343:
 1253               	.LBE342:
 1254               	.LBB344:
 1255               	.LBB345:
 1256               	.LM219:
 1257 05d2 8091 C000 		lds r24,192
 1258 05d6 85FF      		sbrs r24,5
 1259 05d8 00C0      		rjmp .L127
 1260               	.LM220:
 1261 05da 80E1      		ldi r24,lo8(16)
 1262 05dc 8093 C600 		sts 198,r24
 1263               	.L128:
 1264               	.LBE345:
 1265               	.LBE344:
 1266               	.LBB346:
 1267               	.LBB347:
 1268               	.LM221:
 1269 05e0 8091 C000 		lds r24,192
 1270 05e4 85FF      		sbrs r24,5
 1271 05e6 00C0      		rjmp .L128
 1272               	.LM222:
 1273 05e8 83E4      		ldi r24,lo8(67)
 1274 05ea 8093 C600 		sts 198,r24
 1275               	.L129:
 1276               	.LBE347:
 1277               	.LBE346:
 1278               	.LBB348:
 1279               	.LBB349:
 1280               	.LM223:
 1281 05ee 8091 C000 		lds r24,192
 1282 05f2 85FF      		sbrs r24,5
 1283 05f4 00C0      		rjmp .L129
 1284               	.LM224:
 1285 05f6 88E1      		ldi r24,lo8(24)
 1286 05f8 8093 C600 		sts 198,r24
 1287               	.L130:
 1288               	.LBE349:
 1289               	.LBE348:
 1290               	.LBB350:
 1291               	.LBB351:
 1292               	.LM225:
 1293 05fc 8091 C000 		lds r24,192
 1294 0600 85FF      		sbrs r24,5
 1295 0602 00C0      		rjmp .L130
 1296               	.LM226:
 1297 0604 87E4      		ldi r24,lo8(71)
 1298 0606 8093 C600 		sts 198,r24
 1299               	.L131:
 1300               	.LBE351:
 1301               	.LBE350:
 1302               	.LBB352:
 1303               	.LBB353:
 1304               	.LM227:
 1305 060a 8091 C000 		lds r24,192
 1306 060e 85FF      		sbrs r24,5
 1307 0610 00C0      		rjmp .L131
 1308               	.LM228:
 1309 0612 80E1      		ldi r24,lo8(16)
 1310 0614 8093 C600 		sts 198,r24
 1311               	.L132:
 1312               	.LBE353:
 1313               	.LBE352:
 1314               	.LBB354:
 1315               	.LBB355:
 1316               	.LM229:
 1317 0618 8091 C000 		lds r24,192
 1318 061c 85FF      		sbrs r24,5
 1319 061e 00C0      		rjmp .L132
 1320               	.LM230:
 1321 0620 83E4      		ldi r24,lo8(67)
 1322 0622 8093 C600 		sts 198,r24
 1323               	.L133:
 1324               	.LBE355:
 1325               	.LBE354:
 1326               	.LBB356:
 1327               	.LBB357:
 1328               	.LM231:
 1329 0626 8091 C000 		lds r24,192
 1330 062a 85FF      		sbrs r24,5
 1331 062c 00C0      		rjmp .L133
 1332               	.LM232:
 1333 062e 88E1      		ldi r24,lo8(24)
 1334 0630 8093 C600 		sts 198,r24
 1335               	.L134:
 1336               	.LBE357:
 1337               	.LBE356:
 1338               	.LBB358:
 1339               	.LBB359:
 1340               	.LM233:
 1341 0634 8091 C000 		lds r24,192
 1342 0638 85FF      		sbrs r24,5
 1343 063a 00C0      		rjmp .L134
 1344               	.LM234:
 1345 063c 87E4      		ldi r24,lo8(71)
 1346 063e 8093 C600 		sts 198,r24
 1347               	.L135:
 1348               	.LBE359:
 1349               	.LBE358:
 1350               	.LBB360:
 1351               	.LBB361:
 1352               	.LM235:
 1353 0642 8091 C000 		lds r24,192
 1354 0646 85FF      		sbrs r24,5
 1355 0648 00C0      		rjmp .L135
 1356               	.LM236:
 1357 064a 80E1      		ldi r24,lo8(16)
 1358 064c 8093 C600 		sts 198,r24
 1359               	.L136:
 1360               	.LBE361:
 1361               	.LBE360:
 1362               	.LBB362:
 1363               	.LBB363:
 1364               	.LM237:
 1365 0650 8091 C000 		lds r24,192
 1366 0654 85FF      		sbrs r24,5
 1367 0656 00C0      		rjmp .L136
 1368               	.LM238:
 1369 0658 8CE8      		ldi r24,lo8(-116)
 1370 065a 8093 C600 		sts 198,r24
 1371               	.L137:
 1372               	.LBE363:
 1373               	.LBE362:
 1374               	.LBB364:
 1375               	.LBB365:
 1376               	.LM239:
 1377 065e 8091 C000 		lds r24,192
 1378 0662 85FF      		sbrs r24,5
 1379 0664 00C0      		rjmp .L137
 1380               	.LM240:
 1381 0666 83E0      		ldi r24,lo8(3)
 1382 0668 8093 C600 		sts 198,r24
 1383               	.L138:
 1384               	.LBE365:
 1385               	.LBE364:
 1386               	.LBB366:
 1387               	.LBB367:
 1388               	.LM241:
 1389 066c 8091 C000 		lds r24,192
 1390 0670 85FF      		sbrs r24,5
 1391 0672 00C0      		rjmp .L138
 1392               	.LM242:
 1393 0674 83E0      		ldi r24,lo8(3)
 1394 0676 8093 C600 		sts 198,r24
 1395               	.L139:
 1396               	.LBE367:
 1397               	.LBE366:
 1398               	.LBB368:
 1399               	.LBB369:
 1400               	.LM243:
 1401 067a 8091 C000 		lds r24,192
 1402 067e 85FF      		sbrs r24,5
 1403 0680 00C0      		rjmp .L139
 1404               	.LM244:
 1405 0682 89E3      		ldi r24,lo8(57)
 1406 0684 8093 C600 		sts 198,r24
 1407               	.L140:
 1408               	.LBE369:
 1409               	.LBE368:
 1410               	.LBB370:
 1411               	.LBB371:
 1412               	.LM245:
 1413 0688 8091 C000 		lds r24,192
 1414 068c 85FF      		sbrs r24,5
 1415 068e 00C0      		rjmp .L140
 1416               	.LM246:
 1417 0690 80E2      		ldi r24,lo8(32)
 1418 0692 8093 C600 		sts 198,r24
 1419               	.L141:
 1420               	.LBE371:
 1421               	.LBE370:
 1422               	.LBB372:
 1423               	.LBB373:
 1424               	.LM247:
 1425 0696 8091 C000 		lds r24,192
 1426 069a 85FF      		sbrs r24,5
 1427 069c 00C0      		rjmp .L141
 1428               	.LM248:
 1429 069e 81E3      		ldi r24,lo8(49)
 1430 06a0 8093 C600 		sts 198,r24
 1431               	.L142:
 1432               	.LBE373:
 1433               	.LBE372:
 1434               	.LBB374:
 1435               	.LBB375:
 1436               	.LM249:
 1437 06a4 8091 C000 		lds r24,192
 1438 06a8 85FF      		sbrs r24,5
 1439 06aa 00C0      		rjmp .L142
 1440               	.LM250:
 1441 06ac 80E1      		ldi r24,lo8(16)
 1442 06ae 8093 C600 		sts 198,r24
 1443               	.L143:
 1444               	.LBE375:
 1445               	.LBE374:
 1446               	.LBB376:
 1447               	.LBB377:
 1448               	.LM251:
 1449 06b2 8091 C000 		lds r24,192
 1450 06b6 85FF      		sbrs r24,5
 1451 06b8 00C0      		rjmp .L143
 1452               	.LM252:
 1453 06ba 8DE2      		ldi r24,lo8(45)
 1454 06bc 8093 C600 		sts 198,r24
 1455               	.L144:
 1456               	.LBE377:
 1457               	.LBE376:
 1458               	.LBB378:
 1459               	.LBB379:
 1460               	.LM253:
 1461 06c0 8091 C000 		lds r24,192
 1462 06c4 85FF      		sbrs r24,5
 1463 06c6 00C0      		rjmp .L144
 1464               	.LM254:
 1465 06c8 80E1      		ldi r24,lo8(16)
 1466 06ca 8093 C600 		sts 198,r24
 1467               	/* epilogue start */
 1468               	.LBE379:
 1469               	.LBE378:
 1470               	.LM255:
 1471 06ce 0895      		ret
 1472               	.LFE13:
 1474               	.global	main
 1476               	main:
 1477               	.LFB2:
 1478               	.LM256:
 1479 06d0 1F93      		push r17
 1480               	/* prologue: function */
 1481               	/* frame size = 0 */
 1482               	.LM257:
 1483 06d2 0E94 0000 		call initialize
 1484               	.LM258:
 1485 06d6 0E94 0000 		call wake
 1486               	.L215:
 1487               	.LBB380:
 1488               	.LBB381:
 1489               	.LM259:
 1490 06da 8091 C000 		lds r24,192
 1491 06de 85FF      		sbrs r24,5
 1492 06e0 00C0      		rjmp .L215
 1493               	.LM260:
 1494 06e2 80E8      		ldi r24,lo8(-128)
 1495 06e4 8093 C600 		sts 198,r24
 1496               	.LBE381:
 1497               	.LBE380:
 1498               	.LM261:
 1499 06e8 88E0      		ldi r24,lo8(8)
 1500 06ea 0E94 0000 		call baud
 1501               	.LM262:
 1502 06ee 0E94 0000 		call defineSongs
 1503               	.L216:
 1504               	.LBB382:
 1505               	.LBB383:
 1506               	.LM263:
 1507 06f2 8091 C000 		lds r24,192
 1508 06f6 85FF      		sbrs r24,5
 1509 06f8 00C0      		rjmp .L216
 1510               	.LM264:
 1511 06fa 82E8      		ldi r24,lo8(-126)
 1512 06fc 8093 C600 		sts 198,r24
 1513               	.L217:
 1514               	.LBE383:
 1515               	.LBE382:
 1516               	.LBB384:
 1517               	.LBB385:
 1518               	.LM265:
 1519 0700 8091 C000 		lds r24,192
 1520 0704 85FF      		sbrs r24,5
 1521 0706 00C0      		rjmp .L217
 1522               	.LM266:
 1523 0708 83E8      		ldi r24,lo8(-125)
 1524 070a 8093 C600 		sts 198,r24
 1525               	.LBE385:
 1526               	.LBE384:
 1527               	.LM267:
 1528 070e 1092 0000 		sts (distance)+1,__zero_reg__
 1529 0712 1092 0000 		sts distance,__zero_reg__
 1530               	.LM268:
 1531 0716 81E2      		ldi r24,lo8(33)
 1532 0718 90E0      		ldi r25,hi8(33)
 1533 071a 60E0      		ldi r22,lo8(-32768)
 1534 071c 70E8      		ldi r23,hi8(-32768)
 1535 071e 0E94 0000 		call drive
 1536 0722 00C0      		rjmp .L218
 1537               	.L219:
 1538               	.LM269:
 1539 0724 84E6      		ldi r24,lo8(100)
 1540 0726 90E0      		ldi r25,hi8(100)
 1541 0728 0E94 0000 		call delaySensors
 1542               	.L218:
 1543               	.LM270:
 1544 072c 8091 0000 		lds r24,distance
 1545 0730 9091 0000 		lds r25,(distance)+1
 1546 0734 8436      		cpi r24,100
 1547 0736 9105      		cpc r25,__zero_reg__
 1548 0738 04F0      		brlt .L219
 1549               	.LM271:
 1550 073a 80E0      		ldi r24,lo8(0)
 1551 073c 90E0      		ldi r25,hi8(0)
 1552 073e 60E0      		ldi r22,lo8(-32768)
 1553 0740 70E8      		ldi r23,hi8(-32768)
 1554 0742 0E94 0000 		call drive
 1555               	.L220:
 1556               	.LBB386:
 1557               	.LBB387:
 1558               	.LM272:
 1559 0746 8091 C000 		lds r24,192
 1560 074a 85FF      		sbrs r24,5
 1561 074c 00C0      		rjmp .L220
 1562               	.LM273:
 1563 074e 8BE8      		ldi r24,lo8(-117)
 1564 0750 8093 C600 		sts 198,r24
 1565               	.L221:
 1566               	.LBE387:
 1567               	.LBE386:
 1568               	.LBB388:
 1569               	.LBB389:
 1570               	.LM274:
 1571 0754 8091 C000 		lds r24,192
 1572 0758 85FF      		sbrs r24,5
 1573 075a 00C0      		rjmp .L221
 1574               	.LM275:
 1575 075c 8AE0      		ldi r24,lo8(10)
 1576 075e 8093 C600 		sts 198,r24
 1577               	.L222:
 1578               	.LBE389:
 1579               	.LBE388:
 1580               	.LBB390:
 1581               	.LBB391:
 1582               	.LM276:
 1583 0762 8091 C000 		lds r24,192
 1584 0766 85FF      		sbrs r24,5
 1585 0768 00C0      		rjmp .L222
 1586               	.LM277:
 1587 076a 83ED      		ldi r24,lo8(-45)
 1588 076c 8093 C600 		sts 198,r24
 1589               	.L223:
 1590               	.LBE391:
 1591               	.LBE390:
 1592               	.LBB392:
 1593               	.LBB393:
 1594               	.LM278:
 1595 0770 8091 C000 		lds r24,192
 1596 0774 85FF      		sbrs r24,5
 1597 0776 00C0      		rjmp .L223
 1598               	.LM279:
 1599 0778 86E8      		ldi r24,lo8(-122)
 1600 077a 8093 C600 		sts 198,r24
 1601               	.L224:
 1602               	.LBE393:
 1603               	.LBE392:
 1604               	.LBB394:
 1605               	.LBB395:
 1606               	.LM280:
 1607 077e 8091 C000 		lds r24,192
 1608 0782 85FF      		sbrs r24,5
 1609 0784 00C0      		rjmp .L224
 1610               	.LM281:
 1611 0786 8CE8      		ldi r24,lo8(-116)
 1612 0788 8093 C600 		sts 198,r24
 1613               	.L225:
 1614               	.LBE395:
 1615               	.LBE394:
 1616               	.LBB396:
 1617               	.LBB397:
 1618               	.LM282:
 1619 078c 8091 C000 		lds r24,192
 1620 0790 85FF      		sbrs r24,5
 1621 0792 00C0      		rjmp .L225
 1622               	.LM283:
 1623 0794 81E0      		ldi r24,lo8(1)
 1624 0796 8093 C600 		sts 198,r24
 1625               	.L226:
 1626               	.LBE397:
 1627               	.LBE396:
 1628               	.LBB398:
 1629               	.LBB399:
 1630               	.LM284:
 1631 079a 8091 C000 		lds r24,192
 1632 079e 85FF      		sbrs r24,5
 1633 07a0 00C0      		rjmp .L226
 1634               	.LM285:
 1635 07a2 85E0      		ldi r24,lo8(5)
 1636 07a4 8093 C600 		sts 198,r24
 1637               	.L227:
 1638               	.LBE399:
 1639               	.LBE398:
 1640               	.LBB400:
 1641               	.LBB401:
 1642               	.LM286:
 1643 07a8 8091 C000 		lds r24,192
 1644 07ac 85FF      		sbrs r24,5
 1645 07ae 00C0      		rjmp .L227
 1646               	.LM287:
 1647 07b0 89E2      		ldi r24,lo8(41)
 1648 07b2 8093 C600 		sts 198,r24
 1649               	.L228:
 1650               	.LBE401:
 1651               	.LBE400:
 1652               	.LBB402:
 1653               	.LBB403:
 1654               	.LM288:
 1655 07b6 8091 C000 		lds r24,192
 1656 07ba 85FF      		sbrs r24,5
 1657 07bc 00C0      		rjmp .L228
 1658               	.LM289:
 1659 07be 80E2      		ldi r24,lo8(32)
 1660 07c0 8093 C600 		sts 198,r24
 1661               	.L229:
 1662               	.LBE403:
 1663               	.LBE402:
 1664               	.LBB404:
 1665               	.LBB405:
 1666               	.LM290:
 1667 07c4 8091 C000 		lds r24,192
 1668 07c8 85FF      		sbrs r24,5
 1669 07ca 00C0      		rjmp .L229
 1670               	.LM291:
 1671 07cc 80E3      		ldi r24,lo8(48)
 1672 07ce 8093 C600 		sts 198,r24
 1673               	.L230:
 1674               	.LBE405:
 1675               	.LBE404:
 1676               	.LBB406:
 1677               	.LBB407:
 1678               	.LM292:
 1679 07d2 8091 C000 		lds r24,192
 1680 07d6 85FF      		sbrs r24,5
 1681 07d8 00C0      		rjmp .L230
 1682               	.LM293:
 1683 07da 80E2      		ldi r24,lo8(32)
 1684 07dc 8093 C600 		sts 198,r24
 1685               	.L231:
 1686               	.LBE407:
 1687               	.LBE406:
 1688               	.LBB408:
 1689               	.LBB409:
 1690               	.LM294:
 1691 07e0 8091 C000 		lds r24,192
 1692 07e4 85FF      		sbrs r24,5
 1693 07e6 00C0      		rjmp .L231
 1694               	.LM295:
 1695 07e8 88E2      		ldi r24,lo8(40)
 1696 07ea 8093 C600 		sts 198,r24
 1697               	.L232:
 1698               	.LBE409:
 1699               	.LBE408:
 1700               	.LBB410:
 1701               	.LBB411:
 1702               	.LM296:
 1703 07ee 8091 C000 		lds r24,192
 1704 07f2 85FF      		sbrs r24,5
 1705 07f4 00C0      		rjmp .L232
 1706               	.LM297:
 1707 07f6 80E2      		ldi r24,lo8(32)
 1708 07f8 8093 C600 		sts 198,r24
 1709               	.L233:
 1710               	.LBE411:
 1711               	.LBE410:
 1712               	.LBB412:
 1713               	.LBB413:
 1714               	.LM298:
 1715 07fc 8091 C000 		lds r24,192
 1716 0800 85FF      		sbrs r24,5
 1717 0802 00C0      		rjmp .L233
 1718               	.LM299:
 1719 0804 89E2      		ldi r24,lo8(41)
 1720 0806 8093 C600 		sts 198,r24
 1721               	.L234:
 1722               	.LBE413:
 1723               	.LBE412:
 1724               	.LBB414:
 1725               	.LBB415:
 1726               	.LM300:
 1727 080a 8091 C000 		lds r24,192
 1728 080e 85FF      		sbrs r24,5
 1729 0810 00C0      		rjmp .L234
 1730               	.LM301:
 1731 0812 80E2      		ldi r24,lo8(32)
 1732 0814 8093 C600 		sts 198,r24
 1733               	.L235:
 1734               	.LBE415:
 1735               	.LBE414:
 1736               	.LBB416:
 1737               	.LBB417:
 1738               	.LM302:
 1739 0818 8091 C000 		lds r24,192
 1740 081c 85FF      		sbrs r24,5
 1741 081e 00C0      		rjmp .L235
 1742               	.LM303:
 1743 0820 86E3      		ldi r24,lo8(54)
 1744 0822 8093 C600 		sts 198,r24
 1745               	.L236:
 1746               	.LBE417:
 1747               	.LBE416:
 1748               	.LBB418:
 1749               	.LBB419:
 1750               	.LM304:
 1751 0826 8091 C000 		lds r24,192
 1752 082a 85FF      		sbrs r24,5
 1753 082c 00C0      		rjmp .L236
 1754               	.LM305:
 1755 082e 80E2      		ldi r24,lo8(32)
 1756 0830 8093 C600 		sts 198,r24
 1757               	.L237:
 1758               	.LBE419:
 1759               	.LBE418:
 1760               	.LBB420:
 1761               	.LBB421:
 1762               	.LM306:
 1763 0834 8091 C000 		lds r24,192
 1764 0838 85FF      		sbrs r24,5
 1765 083a 00C0      		rjmp .L237
 1766               	.LM307:
 1767 083c 8DE8      		ldi r24,lo8(-115)
 1768 083e 8093 C600 		sts 198,r24
 1769               	.L238:
 1770               	.LBE421:
 1771               	.LBE420:
 1772               	.LBB422:
 1773               	.LBB423:
 1774               	.LM308:
 1775 0842 8091 C000 		lds r24,192
 1776 0846 85FF      		sbrs r24,5
 1777 0848 00C0      		rjmp .L238
 1778               	.LM309:
 1779 084a 11E0      		ldi r17,lo8(1)
 1780 084c 1093 C600 		sts 198,r17
 1781               	.LBE423:
 1782               	.LBE422:
 1783               	.LM310:
 1784 0850 80E0      		ldi r24,lo8(0)
 1785 0852 90E0      		ldi r25,hi8(0)
 1786 0854 60E0      		ldi r22,lo8(-32768)
 1787 0856 70E8      		ldi r23,hi8(-32768)
 1788 0858 0E94 0000 		call drive
 1789               	.LBB424:
 1790               	.LBB425:
 1791               	.LM311:
 1792 085c 1093 0000 		sts timer_on,r17
 1793               	.LM312:
 1794 0860 84EF      		ldi r24,lo8(500)
 1795 0862 91E0      		ldi r25,hi8(500)
 1796 0864 9093 0000 		sts (timer_cnt)+1,r25
 1797 0868 8093 0000 		sts timer_cnt,r24
 1798               	.L239:
 1799               	.LM313:
 1800 086c 8091 0000 		lds r24,timer_on
 1801 0870 8823      		tst r24
 1802 0872 01F4      		brne .L239
 1803               	.L245:
 1804               	.LBE425:
 1805               	.LBE424:
 1806               	.LBB426:
 1807               	.LBB427:
 1808               	.LM314:
 1809 0874 8091 C000 		lds r24,192
 1810 0878 85FF      		sbrs r24,5
 1811 087a 00C0      		rjmp .L245
 1812               	.LM315:
 1813 087c 8DE8      		ldi r24,lo8(-115)
 1814 087e 8093 C600 		sts 198,r24
 1815               	.L241:
 1816               	.LBE427:
 1817               	.LBE426:
 1818               	.LBB428:
 1819               	.LBB429:
 1820               	.LM316:
 1821 0882 8091 C000 		lds r24,192
 1822 0886 85FF      		sbrs r24,5
 1823 0888 00C0      		rjmp .L241
 1824               	.LM317:
 1825 088a 83E0      		ldi r24,lo8(3)
 1826 088c 8093 C600 		sts 198,r24
 1827               	.LBE429:
 1828               	.LBE428:
 1829               	.LBB430:
 1830               	.LBB431:
 1831               	.LM318:
 1832 0890 81E0      		ldi r24,lo8(1)
 1833 0892 8093 0000 		sts timer_on,r24
 1834               	.LM319:
 1835 0896 88EE      		ldi r24,lo8(1000)
 1836 0898 93E0      		ldi r25,hi8(1000)
 1837 089a 9093 0000 		sts (timer_cnt)+1,r25
 1838 089e 8093 0000 		sts timer_cnt,r24
 1839               	.L242:
 1840               	.LM320:
 1841 08a2 8091 0000 		lds r24,timer_on
 1842 08a6 8823      		tst r24
 1843 08a8 01F4      		brne .L242
 1844               	.L272:
 1845 08aa 00C0      		rjmp .L272
 1846               	.LBE431:
 1847               	.LBE430:
 1848               	.LFE2:
 1850               	.global	randomAngle
 1852               	randomAngle:
 1853               	.LFB12:
 1854               	.LM321:
 1855               	/* prologue: function */
 1856               	/* frame size = 0 */
 1857               	.LM322:
 1858 08ac 0E94 0000 		call random
 1859 08b0 9B01      		movw r18,r22
 1860 08b2 AC01      		movw r20,r24
 1861 08b4 3070      		andi r19,hi8(255)
 1862 08b6 2A56      		subi r18,lo8(-(150))
 1863 08b8 3F4F      		sbci r19,hi8(-(150))
 1864               	.LM323:
 1865 08ba C901      		movw r24,r18
 1866               	/* epilogue start */
 1867 08bc 0895      		ret
 1868               	.LFE12:
 1870               	.global	timer_cnt
 1871               	.global	timer_cnt
 1872               		.section .bss
 1875               	timer_cnt:
 1876 0000 0000      		.skip 2,0
 1877               	.global	timer_on
 1878               	.global	timer_on
 1881               	timer_on:
 1882 0002 00        		.skip 1,0
 1883               	.global	sensors_flag
 1884               	.global	sensors_flag
 1887               	sensors_flag:
 1888 0003 00        		.skip 1,0
 1889               	.global	sensors_index
 1890               	.global	sensors_index
 1893               	sensors_index:
 1894 0004 00        		.skip 1,0
 1895               	.global	distance
 1896               	.global	distance
 1899               	distance:
 1900 0005 0000      		.skip 2,0
 1901               	.global	angle
 1902               	.global	angle
 1905               	angle:
 1906 0007 0000      		.skip 2,0
 1907               		.comm sensors_in,26,1
 1908               		.comm sensors,26,1
 2021               	.Letext0:
DEFINED SYMBOLS
                            *ABS*:00000000 mc_o.c
C:\Users\Zijin\AppData\Local\Temp/ccFAekUp.s:2      *ABS*:0000003f __SREG__
C:\Users\Zijin\AppData\Local\Temp/ccFAekUp.s:3      *ABS*:0000003e __SP_H__
C:\Users\Zijin\AppData\Local\Temp/ccFAekUp.s:4      *ABS*:0000003d __SP_L__
C:\Users\Zijin\AppData\Local\Temp/ccFAekUp.s:5      *ABS*:00000034 __CCP__
C:\Users\Zijin\AppData\Local\Temp/ccFAekUp.s:6      *ABS*:00000000 __tmp_reg__
C:\Users\Zijin\AppData\Local\Temp/ccFAekUp.s:7      *ABS*:00000001 __zero_reg__
C:\Users\Zijin\AppData\Local\Temp/ccFAekUp.s:18     .text:00000000 __vector_18
C:\Users\Zijin\AppData\Local\Temp/ccFAekUp.s:1887   .bss:00000003 sensors_flag
C:\Users\Zijin\AppData\Local\Temp/ccFAekUp.s:1893   .bss:00000004 sensors_index
                            *COM*:0000001a sensors_in
C:\Users\Zijin\AppData\Local\Temp/ccFAekUp.s:71     .text:00000050 __vector_11
C:\Users\Zijin\AppData\Local\Temp/ccFAekUp.s:1875   .bss:00000000 timer_cnt
C:\Users\Zijin\AppData\Local\Temp/ccFAekUp.s:1881   .bss:00000002 timer_on
C:\Users\Zijin\AppData\Local\Temp/ccFAekUp.s:112    .text:00000090 byteTx
C:\Users\Zijin\AppData\Local\Temp/ccFAekUp.s:134    .text:000000a0 delay
C:\Users\Zijin\AppData\Local\Temp/ccFAekUp.s:159    .text:000000b8 delaySensors
                            *COM*:0000001a sensors
C:\Users\Zijin\AppData\Local\Temp/ccFAekUp.s:1899   .bss:00000005 distance
C:\Users\Zijin\AppData\Local\Temp/ccFAekUp.s:1905   .bss:00000007 angle
C:\Users\Zijin\AppData\Local\Temp/ccFAekUp.s:274    .text:0000016c initialize
C:\Users\Zijin\AppData\Local\Temp/ccFAekUp.s:336    .text:000001b6 wake
C:\Users\Zijin\AppData\Local\Temp/ccFAekUp.s:403    .text:0000020a baud
C:\Users\Zijin\AppData\Local\Temp/ccFAekUp.s:577    .text:000002d8 drive
C:\Users\Zijin\AppData\Local\Temp/ccFAekUp.s:650    .text:0000031a defineSongs
C:\Users\Zijin\AppData\Local\Temp/ccFAekUp.s:1476   .text:000006d0 main
C:\Users\Zijin\AppData\Local\Temp/ccFAekUp.s:1852   .text:000008ac randomAngle

UNDEFINED SYMBOLS
random
__do_clear_bss
